; Function Attrs: nounwind uwtable
define internal fastcc range(i32 0, 2) i32 @apply_pseudo_merge(ptr noundef readonly captures(none) %0, ptr noundef captures(none) %1, ptr noundef %2, ptr noundef %3) unnamed_addr #0 {
  %5 = alloca i64, align 8
  %6 = alloca i64, align 8
  %7 = getelementptr inbounds nuw i8, ptr %1, i64 32
  %8 = load i8, ptr %7, align 8
  %9 = and i8 %8, 1
  %.not = icmp eq i8 %9, 0
  br i1 %.not, label %10, label %53

10:                                               ; preds = %4
  %11 = load ptr, ptr %1, align 8, !tbaa !106
  %.not14 = icmp eq ptr %3, null
  %12 = select i1 %.not14, ptr %2, ptr %3
  %13 = tail call i32 @ewah_bitmap_is_subset(ptr noundef %11, ptr noundef %12) #15
  %.not15 = icmp eq i32 %13, 0
  br i1 %.not15, label %53, label %14

14:                                               ; preds = %10
  %15 = load i8, ptr %7, align 8
  %16 = and i8 %15, 2
  %.not.i = icmp eq i8 %16, 0
  br i1 %.not.i, label %17, label %18

17:                                               ; preds = %14
  tail call void (ptr, i32, ptr, ...) @BUG_fl(ptr noundef nonnull @.str.3, i32 noundef 526, ptr noundef nonnull @.str.4) #16
  unreachable

18:                                               ; preds = %14
  %19 = and i8 %15, 4
  %.not8.i = icmp eq i8 %19, 0
  br i1 %.not8.i, label %20, label %._crit_edge.i

._crit_edge.i:                                    ; preds = %18
  %.phi.trans.insert.i = getelementptr inbounds nuw i8, ptr %1, i64 8
  %.pre.i = load ptr, ptr %.phi.trans.insert.i, align 8, !tbaa !108
  br label %pseudo_merge_bitmap.exit

20:                                               ; preds = %18
  call void @llvm.lifetime.start.p0(i64 8, ptr nonnull %6) #15
  %21 = getelementptr inbounds nuw i8, ptr %1, i64 24
  %22 = load i64, ptr %21, align 8, !tbaa !110
  store i64 %22, ptr %6, align 8, !tbaa !111
  %23 = getelementptr inbounds nuw i8, ptr %0, i64 24
  %24 = load ptr, ptr %23, align 8, !tbaa !112
  %25 = getelementptr inbounds nuw i8, ptr %0, i64 40
  %26 = load i64, ptr %25, align 8, !tbaa !113
  %27 = call ptr @read_bitmap(ptr noundef %24, i64 noundef %26, ptr noundef nonnull %6) #15
  %28 = getelementptr inbounds nuw i8, ptr %1, i64 8
  store ptr %27, ptr %28, align 8, !tbaa !108
  %29 = load i8, ptr %7, align 8
  %30 = or i8 %29, 4
  store i8 %30, ptr %7, align 8
  call void @llvm.lifetime.end.p0(i64 8, ptr nonnull %6) #15
  br label %pseudo_merge_bitmap.exit

pseudo_merge_bitmap.exit:                         ; preds = %._crit_edge.i, %20
  %31 = phi ptr [ %.pre.i, %._crit_edge.i ], [ %27, %20 ]
  call void @bitmap_or_ewah(ptr noundef %2, ptr noundef %31) #15
  br i1 %.not14, label %50, label %32

32:                                               ; preds = %pseudo_merge_bitmap.exit
  %33 = load i8, ptr %7, align 8
  %34 = and i8 %33, 2
  %.not.i16 = icmp eq i8 %34, 0
  br i1 %.not.i16, label %35, label %36

35:                                               ; preds = %32
  call void (ptr, i32, ptr, ...) @BUG_fl(ptr noundef nonnull @.str.3, i32 noundef 526, ptr noundef nonnull @.str.4) #16
  unreachable

36:                                               ; preds = %32
  %37 = and i8 %33, 4
  %.not8.i17 = icmp eq i8 %37, 0
  br i1 %.not8.i17, label %38, label %._crit_edge.i18

._crit_edge.i18:                                  ; preds = %36
  %.phi.trans.insert.i19 = getelementptr inbounds nuw i8, ptr %1, i64 8
  %.pre.i20 = load ptr, ptr %.phi.trans.insert.i19, align 8, !tbaa !108
  br label %pseudo_merge_bitmap.exit21

38:                                               ; preds = %36
  call void @llvm.lifetime.start.p0(i64 8, ptr nonnull %5) #15
  %39 = getelementptr inbounds nuw i8, ptr %1, i64 24
  %40 = load i64, ptr %39, align 8, !tbaa !110
  store i64 %40, ptr %5, align 8, !tbaa !111
  %41 = getelementptr inbounds nuw i8, ptr %0, i64 24
  %42 = load ptr, ptr %41, align 8, !tbaa !112
  %43 = getelementptr inbounds nuw i8, ptr %0, i64 40
  %44 = load i64, ptr %43, align 8, !tbaa !113
  %45 = call ptr @read_bitmap(ptr noundef %42, i64 noundef %44, ptr noundef nonnull %5) #15
  %46 = getelementptr inbounds nuw i8, ptr %1, i64 8
  store ptr %45, ptr %46, align 8, !tbaa !108
  %47 = load i8, ptr %7, align 8
  %48 = or i8 %47, 4
  store i8 %48, ptr %7, align 8
  call void @llvm.lifetime.end.p0(i64 8, ptr nonnull %5) #15
  br label %pseudo_merge_bitmap.exit21

pseudo_merge_bitmap.exit21:                       ; preds = %._crit_edge.i18, %38
  %49 = phi ptr [ %.pre.i20, %._crit_edge.i18 ], [ %45, %38 ]
  call void @bitmap_or_ewah(ptr noundef nonnull %3, ptr noundef %49) #15
  br label %50

50:                                               ; preds = %pseudo_merge_bitmap.exit21, %pseudo_merge_bitmap.exit
  %51 = load i8, ptr %7, align 8
  %52 = or i8 %51, 1
  store i8 %52, ptr %7, align 8
  br label %53

53:                                               ; preds = %10, %4, %50
  %.0 = phi i32 [ 1, %50 ], [ 0, %4 ], [ 0, %10 ]
  ret i32 %.0
}